; Function Attrs: nofree norecurse nosync nounwind memory(argmem: readwrite) uwtable
define internal i32 @pg_utf2wchar_with_len(ptr noundef readonly captures(none) %0, ptr noundef writeonly captures(none) %1, i32 noundef %2) #2 {
  %4 = icmp sgt i32 %2, 0
  br i1 %4, label %.lr.ph, label %.critedge

.lr.ph:                                           ; preds = %3, %73
  %.050 = phi ptr [ %.1, %73 ], [ %0, %3 ]
  %.04249 = phi i32 [ %76, %73 ], [ 0, %3 ]
  %.04348 = phi i32 [ %74, %73 ], [ %2, %3 ]
  %.04547 = phi ptr [ %75, %73 ], [ %1, %3 ]
  %5 = load i8, ptr %.050, align 1
  %6 = zext i8 %5 to i32
  %.not = icmp eq i8 %5, 0
  br i1 %.not, label %.critedge, label %7

7:                                                ; preds = %.lr.ph
  %8 = icmp sgt i8 %5, -1
  br i1 %8, label %9, label %11

9:                                                ; preds = %7
  %10 = getelementptr inbounds nuw i8, ptr %.050, i64 1
  br label %73

11:                                               ; preds = %7
  %12 = and i32 %6, 224
  %13 = icmp eq i32 %12, 192
  br i1 %13, label %14, label %25

14:                                               ; preds = %11
  %15 = icmp eq i32 %.04348, 1
  br i1 %15, label %.critedge, label %16

16:                                               ; preds = %14
  %17 = getelementptr inbounds nuw i8, ptr %.050, i64 1
  %18 = getelementptr inbounds nuw i8, ptr %.050, i64 2
  %19 = load i8, ptr %17, align 1
  %20 = and i8 %19, 63
  %21 = zext nneg i8 %20 to i32
  %22 = shl nuw nsw i32 %6, 6
  %23 = and i32 %22, 1984
  %24 = or disjoint i32 %23, %21
  br label %73

25:                                               ; preds = %11
  %26 = and i32 %6, 240
  %27 = icmp eq i32 %26, 224
  br i1 %27, label %28, label %45

28:                                               ; preds = %25
  %29 = icmp samesign ult i32 %.04348, 3
  br i1 %29, label %.critedge, label %30

30:                                               ; preds = %28
  %31 = getelementptr inbounds nuw i8, ptr %.050, i64 1
  %32 = getelementptr inbounds nuw i8, ptr %.050, i64 2
  %33 = load i8, ptr %31, align 1
  %34 = and i8 %33, 63
  %35 = zext nneg i8 %34 to i32
  %36 = getelementptr inbounds nuw i8, ptr %.050, i64 3
  %37 = load i8, ptr %32, align 1
  %38 = and i8 %37, 63
  %39 = zext nneg i8 %38 to i32
  %40 = shl nuw nsw i32 %6, 12
  %41 = and i32 %40, 61440
  %42 = shl nuw nsw i32 %35, 6
  %43 = or disjoint i32 %42, %41
  %44 = or disjoint i32 %43, %39
  br label %73

45:                                               ; preds = %25
  %46 = and i32 %6, 248
  %47 = icmp eq i32 %46, 240
  br i1 %47, label %48, label %71

48:                                               ; preds = %45
  %49 = icmp samesign ult i32 %.04348, 4
  br i1 %49, label %.critedge, label %50

50:                                               ; preds = %48
  %51 = getelementptr inbounds nuw i8, ptr %.050, i64 1
  %52 = getelementptr inbounds nuw i8, ptr %.050, i64 2
  %53 = load i8, ptr %51, align 1
  %54 = and i8 %53, 63
  %55 = zext nneg i8 %54 to i32
  %56 = getelementptr inbounds nuw i8, ptr %.050, i64 3
  %57 = load i8, ptr %52, align 1
  %58 = and i8 %57, 63
  %59 = zext nneg i8 %58 to i32
  %60 = getelementptr inbounds nuw i8, ptr %.050, i64 4
  %61 = load i8, ptr %56, align 1
  %62 = and i8 %61, 63
  %63 = zext nneg i8 %62 to i32
  %64 = shl nuw nsw i32 %6, 18
  %65 = and i32 %64, 1835008
  %66 = shl nuw nsw i32 %55, 12
  %67 = or disjoint i32 %66, %65
  %68 = shl nuw nsw i32 %59, 6
  %69 = or disjoint i32 %67, %68
  %70 = or disjoint i32 %69, %63
  br label %73

71:                                               ; preds = %45
  %72 = getelementptr inbounds nuw i8, ptr %.050, i64 1
  br label %73

73:                                               ; preds = %16, %50, %71, %30, %9
  %.sink64 = phi i32 [ %24, %16 ], [ %70, %50 ], [ %6, %71 ], [ %44, %30 ], [ %6, %9 ]
  %.sink = phi i32 [ -2, %16 ], [ -4, %50 ], [ -1, %71 ], [ -3, %30 ], [ -1, %9 ]
  %.1 = phi ptr [ %18, %16 ], [ %60, %50 ], [ %72, %71 ], [ %36, %30 ], [ %10, %9 ]
  store i32 %.sink64, ptr %.04547, align 4
  %74 = add nsw i32 %.04348, %.sink
  %75 = getelementptr inbounds nuw i8, ptr %.04547, i64 4
  %76 = add i32 %.04249, 1
  %77 = icmp sgt i32 %74, 0
  br i1 %77, label %.lr.ph, label %.critedge, !llvm.loop !11

.critedge:                                        ; preds = %.lr.ph, %14, %28, %48, %73, %3
  %.045.lcssa = phi ptr [ %1, %3 ], [ %75, %73 ], [ %.04547, %48 ], [ %.04547, %28 ], [ %.04547, %14 ], [ %.04547, %.lr.ph ]
  %.042.lcssa = phi i32 [ 0, %3 ], [ %76, %73 ], [ %.04249, %48 ], [ %.04249, %28 ], [ %.04249, %14 ], [ %.04249, %.lr.ph ]
  store i32 0, ptr %.045.lcssa, align 4
  ret i32 %.042.lcssa
}